(dp0
S'Mississippi'
p1
(dp2
S'Space'
p3
S'6'
p4
sS'Row'
p5
g4
ssS'Oklahoma'
p6
(dp7
g3
S'4'
p8
sg5
g4
ssS'Delaware'
p9
(dp10
g3
S'9'
p11
sg5
S'5'
p12
ssS'Minnesota'
p13
(dp14
g3
g12
sg5
S'2'
p15
ssS'Illinois'
p16
(dp17
g3
g4
sg5
g15
ssS'Arkansas'
p18
(dp19
g3
g12
sg5
g12
ssS'New Mexico'
p20
(dp21
g3
S'3'
p22
sg5
g12
ssS'Indiana'
p23
(dp24
g3
g4
sg5
g22
ssS'Maryland'
p25
(dp26
g3
g11
sg5
g8
ssS'Louisiana'
p27
(dp28
g3
g12
sg5
g4
ssS'Idaho'
p29
(dp30
g3
g15
sg5
g15
ssS'Wyoming'
p31
(dp32
g3
g22
sg5
g22
ssS'Tennessee'
p33
(dp34
g3
g4
sg5
g12
ssS'Arizona'
p35
(dp36
g3
g15
sg5
g12
ssS'Iowa'
p37
(dp38
g3
g12
sg5
g22
ssS'Michigan'
p39
(dp40
g3
S'8'
p41
sg5
g15
ssS'Kansas'
p42
(dp43
g3
g8
sg5
g12
ssS'Utah'
p44
(dp45
g3
g15
sg5
g8
ssS'Virginia'
p46
(dp47
g3
g41
sg5
g8
ssS'Oregon'
p48
(dp49
g3
S'1'
p50
sg5
g22
ssS'Connecticut'
p51
(dp52
g3
S'10'
p53
sg5
g22
ssS'Montana'
p54
(dp55
g3
g22
sg5
g15
ssS'California'
p56
(dp57
g3
g50
sg5
g8
ssS'Massachusetts'
p58
(dp59
g3
S'11'
p60
sg5
g15
ssS'West Virginia'
p61
(dp62
g3
S'7'
p63
sg5
g8
ssS'South Carolina'
p64
(dp65
g3
g41
sg5
g12
ssS'New Hampshire'
p66
(dp67
g3
S'11'
p68
sg5
g50
ssS'Wisconsin'
p69
(dp70
g3
g63
sg5
g15
ssS'Vermont'
p71
(dp72
g3
S'10'
p73
sg5
g50
ssS'Georgia'
p74
(dp75
g3
g41
sg5
g4
ssS'North Dakota'
p76
(dp77
g3
g8
sg5
g15
ssS'Pennsylvania'
p78
(dp79
g3
g41
sg5
g22
ssS'Florida'
p80
(dp81
g3
g11
sg5
g63
ssS'Alaska'
p82
(dp83
g3
S'0'
p84
sg5
g84
ssS'Kentucky'
p85
(dp86
g3
g4
sg5
g8
ssS'Hawaii'
p87
(dp88
g3
g50
sg5
g63
ssS'Nebraska'
p89
(dp90
g3
g8
sg5
g8
ssS'Missouri'
p91
(dp92
g3
g12
sg5
g8
ssS'Ohio'
p93
(dp94
g3
g63
sg5
g22
ssS'Alabama'
p95
(dp96
g3
g63
sg5
g4
ssS'New York'
p97
(dp98
g3
g11
sg5
g15
ssS'South Dakota'
p99
(dp100
g3
g8
sg5
g22
ssS'Colorado'
p101
(dp102
g3
g22
sg5
g8
ssS'New Jersey'
p103
(dp104
g3
g11
sg5
g22
ssS'Washington'
p105
(dp106
g3
g50
sg5
g15
ssS'North Carolina'
p107
(dp108
g3
g63
sg5
g12
ssS'District of Columbia'
p109
(dp110
g3
S'10'
p111
sg5
g8
ssS'Texas'
p112
(dp113
g3
g8
sg5
g63
ssS'Nevada'
p114
(dp115
g3
g15
sg5
g22
ssS'Maine'
p116
(dp117
g3
S'11'
p118
sg5
g84
ssS'Rhode Island'
p119
(dp120
g3
S'10'
p121
sg5
g15
ss.